(iConnect4Engine
Connect4Engine
p1
(dp2
S'board'
p3
(iBoard
Board
p4
(dp5
S'rows'
p6
I4
sS'grid'
p7
(lp8
(lp9
I-1
aI-1
aI-1
aI0
aa(lp10
I-1
aI1
aI0
aI0
aa(lp11
I-1
aI0
aI1
aI1
aa(lp12
I0
aI1
aI1
aI0
aasS'columns'
p13
I4
sbsS'length_to_win'
p14
I4
sb.