(iConnect4Engine
Connect4Engine
p1
(dp2
S'board'
p3
(iBoard
Board
p4
(dp5
S'rows'
p6
I3
sS'grid'
p7
(lp8
(lp9
I-1
aI-1
aI-1
aa(lp10
I-1
aI-1
aI-1
aa(lp11
I-1
aI-1
aI0
aasS'columns'
p12
I3
sbsS'length_to_win'
p13
I3
sb.